target datalayout = "e-m:e-p270:32:32-p271:32:32-p272:64:64-i64:64-i128:128-f80:128-n8:16:32:64-S128"
target triple = "x86_64-unknown-linux-gnu"

@_ZTVN4FLAC8Metadata5ChainE = unnamed_addr constant { [5 x ptr] } { [5 x ptr] [ptr null, ptr @_ZTIN4FLAC8Metadata5ChainE, ptr @_ZN4FLAC8Metadata5ChainD1Ev, ptr @_ZN4FLAC8Metadata5ChainD0Ev, ptr @_ZN4FLAC8Metadata5Chain5clearEv] }, align 8

; Function Attrs: mustprogress nounwind sspstrong uwtable
define void @_ZN4FLAC8Metadata5ChainD2Ev(ptr noundef nonnull align 8 dereferenceable(16) %this) unnamed_addr #5 align 2 personality ptr @__gxx_personality_v0 {
entry:
  %this.addr = alloca ptr, align 8
  store ptr %this, ptr %this.addr, align 8
  %this1 = load ptr, ptr %this.addr, align 8
  store ptr getelementptr inbounds ({ [5 x ptr] }, ptr @_ZTVN4FLAC8Metadata5ChainE, i32 0, i32 0, i32 2), ptr %this1, align 8
  %vtable = load ptr, ptr %this1, align 8
  %vfn = getelementptr inbounds ptr, ptr %vtable, i64 2
  %0 = load ptr, ptr %vfn, align 8
  invoke void %0(ptr noundef nonnull align 8 dereferenceable(16) %this1)
          to label %invoke.cont unwind label %terminate.lpad

invoke.cont:                                      ; preds = %entry
  ret void

terminate.lpad:                                   ; preds = %entry
  %1 = landingpad { ptr, i32 }
          catch ptr null
  %2 = extractvalue { ptr, i32 } %1, 0
  call void @__clang_call_terminate(ptr %2) #15
  unreachable
}