; Function Attrs: mustprogress nounwind sspstrong uwtable
define void @_ZN4FLAC8Metadata5ChainD2Ev(ptr nocapture noundef nonnull align 8 dereferenceable(16) %this) unnamed_addr #5 align 2 personality ptr @__gxx_personality_v0 {
entry:
  store ptr getelementptr inbounds ({ [5 x ptr] }, ptr @_ZTVN4FLAC8Metadata5ChainE, i64 0, i32 0, i64 2), ptr %this, align 8
  %chain_.i = getelementptr inbounds i8, ptr %this, i64 8
  %0 = load ptr, ptr %chain_.i, align 8
  %cmp.not.i = icmp eq ptr %0, null
  br i1 %cmp.not.i, label %invoke.cont, label %if.then.i

if.then.i:                                        ; preds = %entry
  invoke void @FLAC__metadata_chain_delete(ptr noundef nonnull %0)
          to label %invoke.cont unwind label %terminate.lpad

invoke.cont:                                      ; preds = %entry, %if.then.i
  store ptr null, ptr %chain_.i, align 8
  ret void

terminate.lpad:                                   ; preds = %if.then.i
  %1 = landingpad { ptr, i32 }
          catch ptr null
  %2 = extractvalue { ptr, i32 } %1, 0
  tail call void @__clang_call_terminate(ptr %2) #22
  unreachable
}